target datalayout = "e-m:e-p270:32:32-p271:32:32-p272:64:64-i64:64-i128:128-f80:128-n8:16:32:64-S128"
target triple = "x86_64-unknown-linux-gnu"

%"class.datalog::relation_signature" = type { %"class.datalog::tr_infrastructure<datalog::relation_traits>::signature_base" }
%"class.datalog::tr_infrastructure<datalog::relation_traits>::signature_base" = type { %class.ptr_vector }
%class.ptr_vector = type { %class.vector }
%class.vector = type { ptr }
%class.vector.0 = type { ptr }
%"class.datalog::table_signature" = type <{ %"class.datalog::tr_infrastructure<datalog::table_traits>::signature_base", i32, [4 x i8] }>
%"class.datalog::tr_infrastructure<datalog::table_traits>::signature_base" = type { %class.svector }
%class.svector = type { %class.vector.0 }
%"class.datalog::finite_product_relation" = type { %"class.datalog::relation_base.base", [4 x i8], %"class.datalog::table_signature", %class.svector.1, %class.svector.1, %"class.datalog::relation_signature", %class.svector.1, %class.svector.1, ptr, i32, ptr, %class.ptr_vector.3, %class.svector.1, i32, %class.uint_set, %class.scoped_ptr, %class.scoped_ptr.5 }
%"class.datalog::relation_base.base" = type { %"class.datalog::tr_infrastructure<datalog::relation_traits>::base_ancestor.base" }
%"class.datalog::tr_infrastructure<datalog::relation_traits>::base_ancestor.base" = type <{ ptr, ptr, %"class.datalog::relation_signature", i32 }>
%class.ptr_vector.3 = type { %class.vector.4 }
%class.vector.4 = type { ptr }
%class.svector.1 = type { %class.vector.2 }
%class.vector.2 = type { ptr }
%class.uint_set = type { %class.svector.1 }
%class.scoped_ptr = type { ptr }
%class.scoped_ptr.5 = type { ptr }

; Function Attrs: mustprogress nounwind uwtable
define linkonce_odr hidden noundef zeroext i1 @_ZNK6vectorIP4sortLb0EjE5emptyEv(ptr noundef nonnull align 8 dereferenceable(8) %this) #5 comdat align 2 {
entry:
  %this.addr = alloca ptr, align 8
  store ptr %this, ptr %this.addr, align 8
  %this1 = load ptr, ptr %this.addr, align 8
  %m_data = getelementptr inbounds %class.vector, ptr %this1, i32 0, i32 0
  %0 = load ptr, ptr %m_data, align 8
  %cmp = icmp eq ptr %0, null
  br i1 %cmp, label %lor.end, label %lor.rhs

lor.rhs:                                          ; preds = %entry
  %m_data2 = getelementptr inbounds %class.vector, ptr %this1, i32 0, i32 0
  %1 = load ptr, ptr %m_data2, align 8
  %arrayidx = getelementptr inbounds i32, ptr %1, i64 -1
  %2 = load i32, ptr %arrayidx, align 4
  %cmp3 = icmp eq i32 %2, 0
  br label %lor.end

lor.end:                                          ; preds = %lor.rhs, %entry
  %3 = phi i1 [ true, %entry ], [ %cmp3, %lor.rhs ]
  ret i1 %3
}

; Function Attrs: mustprogress uwtable
define hidden noundef zeroext i1 @_ZN7datalog30finite_product_relation_plugin29can_convert_to_table_relationERKNS_23finite_product_relationE(ptr noundef nonnull align 8 dereferenceable(112) %this, ptr noundef nonnull align 8 dereferenceable(160) %r) #4 align 2 {
entry:
  %this.addr = alloca ptr, align 8
  %r.addr = alloca ptr, align 8
  store ptr %this, ptr %this.addr, align 8
  store ptr %r, ptr %r.addr, align 8
  %0 = load ptr, ptr %r.addr, align 8
  %m_other_sig = getelementptr inbounds %"class.datalog::finite_product_relation", ptr %0, i32 0, i32 5
  %call = call noundef zeroext i1 @_ZNK6vectorIP4sortLb0EjE5emptyEv(ptr noundef nonnull align 8 dereferenceable(8) %m_other_sig)
  ret i1 %call
}