; Function Attrs: mustprogress nofree norecurse nosync nounwind willreturn memory(read, inaccessiblemem: none) uwtable
define hidden noundef zeroext i1 @_ZN7datalog30finite_product_relation_plugin29can_convert_to_table_relationERKNS_23finite_product_relationE(ptr nocapture noundef nonnull readnone align 8 dereferenceable(112) %this, ptr nocapture noundef nonnull readonly align 8 dereferenceable(160) %r) local_unnamed_addr #7 align 2 {
entry:
  %m_other_sig = getelementptr inbounds i8, ptr %r, i64 64
  %0 = load ptr, ptr %m_other_sig, align 8
  %cmp.i = icmp eq ptr %0, null
  br i1 %cmp.i, label %_ZNK6vectorIP4sortLb0EjE5emptyEv.exit, label %lor.rhs.i

lor.rhs.i:                                        ; preds = %entry
  %arrayidx.i = getelementptr inbounds i8, ptr %0, i64 -4
  %1 = load i32, ptr %arrayidx.i, align 4
  %cmp3.i = icmp eq i32 %1, 0
  br label %_ZNK6vectorIP4sortLb0EjE5emptyEv.exit

_ZNK6vectorIP4sortLb0EjE5emptyEv.exit:            ; preds = %entry, %lor.rhs.i
  %2 = phi i1 [ true, %entry ], [ %cmp3.i, %lor.rhs.i ]
  ret i1 %2
}